; Function Attrs: mustprogress nounwind uwtable
define hidden void @_ZN17opencv_tensorflow9AttrValueD2Ev(ptr noundef nonnull align 8 dereferenceable(32) %0) unnamed_addr #5 align 2 personality ptr @__gxx_personality_v0 {
  %2 = getelementptr inbounds nuw i8, ptr %0, i64 8
  %3 = load i64, ptr %2, align 8, !tbaa !16
  %4 = and i64 %3, 1
  %.not.i = icmp eq i64 %4, 0
  %5 = and i64 %3, -4
  %6 = inttoptr i64 %5 to ptr
  br i1 %.not.i, label %_ZNK6google8protobuf11MessageLite21GetArenaForAllocationEv.exit, label %7, !prof !36

7:                                                ; preds = %1
  %8 = load ptr, ptr %6, align 8, !tbaa !37
  br label %_ZNK6google8protobuf11MessageLite21GetArenaForAllocationEv.exit

_ZNK6google8protobuf11MessageLite21GetArenaForAllocationEv.exit: ; preds = %7, %1
  %.0.i.i = phi ptr [ %8, %7 ], [ %6, %1 ]
  %.not = icmp eq ptr %.0.i.i, null
  br i1 %.not, label %9, label %_ZN6google8protobuf8internal16InternalMetadata6DeleteINS0_15UnknownFieldSetEEEvv.exit

9:                                                ; preds = %_ZNK6google8protobuf11MessageLite21GetArenaForAllocationEv.exit
  %10 = getelementptr inbounds nuw i8, ptr %0, i64 28
  %11 = load i32, ptr %10, align 4, !tbaa !79
  %.not3 = icmp eq i32 %11, 0
  br i1 %.not3, label %_ZN17opencv_tensorflow9AttrValue10SharedDtorEv.exit, label %12

12:                                               ; preds = %9
  invoke void @_ZN17opencv_tensorflow9AttrValue11clear_valueEv(ptr noundef nonnull align 8 dereferenceable(32) %0)
          to label %._ZN17opencv_tensorflow9AttrValue10SharedDtorEv.exit_crit_edge unwind label %25

._ZN17opencv_tensorflow9AttrValue10SharedDtorEv.exit_crit_edge: ; preds = %12
  %.pre = load i64, ptr %2, align 8, !tbaa !16
  %.pre5 = and i64 %.pre, 1
  br label %_ZN17opencv_tensorflow9AttrValue10SharedDtorEv.exit

_ZN17opencv_tensorflow9AttrValue10SharedDtorEv.exit: ; preds = %._ZN17opencv_tensorflow9AttrValue10SharedDtorEv.exit_crit_edge, %9
  %.pre-phi = phi i64 [ %.pre5, %._ZN17opencv_tensorflow9AttrValue10SharedDtorEv.exit_crit_edge ], [ %4, %9 ]
  %13 = phi i64 [ %.pre, %._ZN17opencv_tensorflow9AttrValue10SharedDtorEv.exit_crit_edge ], [ %3, %9 ]
  %.not.i1 = icmp eq i64 %.pre-phi, 0
  br i1 %.not.i1, label %_ZN6google8protobuf8internal16InternalMetadata6DeleteINS0_15UnknownFieldSetEEEvv.exit, label %14

14:                                               ; preds = %_ZN17opencv_tensorflow9AttrValue10SharedDtorEv.exit
  invoke void @_ZN6google8protobuf8internal16InternalMetadata21DeleteOutOfLineHelperINS0_15UnknownFieldSetEEEvv(ptr noundef nonnull align 8 dereferenceable(8) %2)
          to label %._ZN6google8protobuf8internal16InternalMetadata6DeleteINS0_15UnknownFieldSetEEEvv.exit_crit_edge unwind label %25

._ZN6google8protobuf8internal16InternalMetadata6DeleteINS0_15UnknownFieldSetEEEvv.exit_crit_edge: ; preds = %14
  %.pre4 = load i64, ptr %2, align 8, !tbaa !16
  br label %_ZN6google8protobuf8internal16InternalMetadata6DeleteINS0_15UnknownFieldSetEEEvv.exit

_ZN6google8protobuf8internal16InternalMetadata6DeleteINS0_15UnknownFieldSetEEEvv.exit: ; preds = %._ZN6google8protobuf8internal16InternalMetadata6DeleteINS0_15UnknownFieldSetEEEvv.exit_crit_edge, %_ZN17opencv_tensorflow9AttrValue10SharedDtorEv.exit, %_ZNK6google8protobuf11MessageLite21GetArenaForAllocationEv.exit
  %15 = phi i64 [ %.pre4, %._ZN6google8protobuf8internal16InternalMetadata6DeleteINS0_15UnknownFieldSetEEEvv.exit_crit_edge ], [ %13, %_ZN17opencv_tensorflow9AttrValue10SharedDtorEv.exit ], [ %3, %_ZNK6google8protobuf11MessageLite21GetArenaForAllocationEv.exit ]
  store ptr getelementptr inbounds nuw inrange(-16, 104) (i8, ptr @_ZTVN6google8protobuf11MessageLiteE, i64 16), ptr %0, align 8, !tbaa !19
  %16 = and i64 %15, 2
  %.not.i.i = icmp eq i64 %16, 0
  br i1 %.not.i.i, label %_ZN6google8protobuf11MessageLiteD2Ev.exit, label %17

17:                                               ; preds = %_ZN6google8protobuf8internal16InternalMetadata6DeleteINS0_15UnknownFieldSetEEEvv.exit
  %18 = and i64 %15, 1
  %.not1.i.i = icmp eq i64 %18, 0
  %19 = and i64 %15, -4
  %20 = inttoptr i64 %19 to ptr
  br i1 %.not1.i.i, label %_ZNK6google8protobuf8internal16InternalMetadata5arenaEv.exit.i.i, label %21, !prof !36

21:                                               ; preds = %17
  %22 = load ptr, ptr %20, align 8, !tbaa !37
  br label %_ZNK6google8protobuf8internal16InternalMetadata5arenaEv.exit.i.i

_ZNK6google8protobuf8internal16InternalMetadata5arenaEv.exit.i.i: ; preds = %21, %17
  %.0.i.i.i = phi ptr [ %22, %21 ], [ %20, %17 ]
  %23 = icmp eq ptr %.0.i.i.i, null
  br i1 %23, label %_ZN6google8protobuf11MessageLiteD2Ev.exit, label %24

24:                                               ; preds = %_ZNK6google8protobuf8internal16InternalMetadata5arenaEv.exit.i.i
  tail call void @_ZN6google8protobuf8internal15ThreadSafeArenaD1Ev(ptr noundef nonnull align 8 dereferenceable(32) %.0.i.i.i) #30
  tail call void @_ZdlPv(ptr noundef nonnull %.0.i.i.i) #31
  br label %_ZN6google8protobuf11MessageLiteD2Ev.exit

_ZN6google8protobuf11MessageLiteD2Ev.exit:        ; preds = %_ZN6google8protobuf8internal16InternalMetadata6DeleteINS0_15UnknownFieldSetEEEvv.exit, %_ZNK6google8protobuf8internal16InternalMetadata5arenaEv.exit.i.i, %24
  ret void

25:                                               ; preds = %14, %12
  %26 = landingpad { ptr, i32 }
          catch ptr null
  %27 = extractvalue { ptr, i32 } %26, 0
  tail call void @__clang_call_terminate(ptr %27) #29
  unreachable
}